; Function Attrs: cold nounwind optsize uwtable
define internal range(i32 -12, 1) i32 @decode_init(ptr noundef captures(none) initializes((136, 140), (156, 160)) %0) #0 {
  %2 = getelementptr inbounds nuw i8, ptr %0, i64 32
  %3 = load ptr, ptr %2, align 8, !tbaa !4
  %4 = getelementptr inbounds nuw i8, ptr %0, i64 136
  store i32 0, ptr %4, align 8, !tbaa !27
  %5 = getelementptr inbounds nuw i8, ptr %0, i64 156
  store i32 2, ptr %5, align 4, !tbaa !28
  %6 = getelementptr inbounds nuw i8, ptr %3, i64 2136
  tail call void @ff_blockdsp_init(ptr noundef nonnull %6) #8
  %7 = tail call ptr @av_frame_alloc() #8
  %8 = getelementptr inbounds nuw i8, ptr %3, i64 2168
  store ptr %7, ptr %8, align 8, !tbaa !29
  %.not = icmp eq ptr %7, null
  br i1 %.not, label %11, label %9

9:                                                ; preds = %1
  %10 = tail call i32 @pthread_once(ptr noundef nonnull @decode_init.init_static_once, ptr noundef nonnull @init_static_data) #8
  br label %11

11:                                               ; preds = %1, %9
  %.0 = phi i32 [ 0, %9 ], [ -12, %1 ]
  ret i32 %.0
}